target datalayout = "e-m:e-p270:32:32-p271:32:32-p272:64:64-i64:64-i128:128-f80:128-n8:16:32:64-S128"
target triple = "x86_64-pc-linux-gnu"

@.str.3 = private unnamed_addr constant [2 x i8] c"\0A\00", align 1
@.str.4 = private unnamed_addr constant [72 x i8] c"    connect [-nomap] [-nounset] -set <lhs-expr> <rhs-expr> [selection]\0A\00", align 1
@.str.5 = private unnamed_addr constant [73 x i8] c"Create a connection. This is equivalent to adding the statement 'assign\0A\00", align 1
@.str.6 = private unnamed_addr constant [75 x i8] c"<lhs-expr> = <rhs-expr>;' to the Verilog input. Per default, all existing\0A\00", align 1
@.str.7 = private unnamed_addr constant [74 x i8] c"drivers for <lhs-expr> are unconnected. This can be overwritten by using\0A\00", align 1
@.str.8 = private unnamed_addr constant [22 x i8] c"the -nounset option.\0A\00", align 1
@.str.9 = private unnamed_addr constant [48 x i8] c"    connect [-nomap] -unset <expr> [selection]\0A\00", align 1
@.str.10 = private unnamed_addr constant [62 x i8] c"Unconnect all existing drivers for the specified expression.\0A\00", align 1
@.str.11 = private unnamed_addr constant [71 x i8] c"    connect [-nomap] [-assert] -port <cell> <port> <expr> [selection]\0A\00", align 1
@.str.12 = private unnamed_addr constant [61 x i8] c"Connect the specified cell port to the specified cell port.\0A\00", align 1
@.str.13 = private unnamed_addr constant [77 x i8] c"Per default signal alias names are resolved and all signal names are mapped\0A\00", align 1
@.str.14 = private unnamed_addr constant [80 x i8] c"the the signal name of the primary driver. Using the -nomap option deactivates\0A\00", align 1
@.str.15 = private unnamed_addr constant [16 x i8] c"this behavior.\0A\00", align 1
@.str.16 = private unnamed_addr constant [78 x i8] c"The connect command operates in one module only. Either only one module must\0A\00", align 1
@.str.17 = private unnamed_addr constant [69 x i8] c"be selected or an active module must be set using the 'cd' command.\0A\00", align 1
@.str.18 = private unnamed_addr constant [76 x i8] c"The -assert option verifies that the connection already exists, instead of\0A\00", align 1
@.str.19 = private unnamed_addr constant [12 x i8] c"making it.\0A\00", align 1
@.str.20 = private unnamed_addr constant [57 x i8] c"This command does not operate on module with processes.\0A\00", align 1

; Function Attrs: mustprogress uwtable
define internal void @_ZN12_GLOBAL__N_111ConnectPass4helpEv(ptr noundef nonnull align 8 dereferenceable(104) %0) unnamed_addr #4 align 2 {
  %2 = alloca ptr, align 8
  store ptr %0, ptr %2, align 8
  call void (ptr, ...) @_ZN5Yosys3logEPKcz(ptr noundef @.str.3)
  call void (ptr, ...) @_ZN5Yosys3logEPKcz(ptr noundef @.str.4)
  call void (ptr, ...) @_ZN5Yosys3logEPKcz(ptr noundef @.str.3)
  call void (ptr, ...) @_ZN5Yosys3logEPKcz(ptr noundef @.str.5)
  call void (ptr, ...) @_ZN5Yosys3logEPKcz(ptr noundef @.str.6)
  call void (ptr, ...) @_ZN5Yosys3logEPKcz(ptr noundef @.str.7)
  call void (ptr, ...) @_ZN5Yosys3logEPKcz(ptr noundef @.str.8)
  call void (ptr, ...) @_ZN5Yosys3logEPKcz(ptr noundef @.str.3)
  call void (ptr, ...) @_ZN5Yosys3logEPKcz(ptr noundef @.str.3)
  call void (ptr, ...) @_ZN5Yosys3logEPKcz(ptr noundef @.str.9)
  call void (ptr, ...) @_ZN5Yosys3logEPKcz(ptr noundef @.str.3)
  call void (ptr, ...) @_ZN5Yosys3logEPKcz(ptr noundef @.str.10)
  call void (ptr, ...) @_ZN5Yosys3logEPKcz(ptr noundef @.str.3)
  call void (ptr, ...) @_ZN5Yosys3logEPKcz(ptr noundef @.str.3)
  call void (ptr, ...) @_ZN5Yosys3logEPKcz(ptr noundef @.str.11)
  call void (ptr, ...) @_ZN5Yosys3logEPKcz(ptr noundef @.str.3)
  call void (ptr, ...) @_ZN5Yosys3logEPKcz(ptr noundef @.str.12)
  call void (ptr, ...) @_ZN5Yosys3logEPKcz(ptr noundef @.str.3)
  call void (ptr, ...) @_ZN5Yosys3logEPKcz(ptr noundef @.str.3)
  call void (ptr, ...) @_ZN5Yosys3logEPKcz(ptr noundef @.str.13)
  call void (ptr, ...) @_ZN5Yosys3logEPKcz(ptr noundef @.str.14)
  call void (ptr, ...) @_ZN5Yosys3logEPKcz(ptr noundef @.str.15)
  call void (ptr, ...) @_ZN5Yosys3logEPKcz(ptr noundef @.str.3)
  call void (ptr, ...) @_ZN5Yosys3logEPKcz(ptr noundef @.str.16)
  call void (ptr, ...) @_ZN5Yosys3logEPKcz(ptr noundef @.str.17)
  call void (ptr, ...) @_ZN5Yosys3logEPKcz(ptr noundef @.str.3)
  call void (ptr, ...) @_ZN5Yosys3logEPKcz(ptr noundef @.str.18)
  call void (ptr, ...) @_ZN5Yosys3logEPKcz(ptr noundef @.str.19)
  call void (ptr, ...) @_ZN5Yosys3logEPKcz(ptr noundef @.str.3)
  call void (ptr, ...) @_ZN5Yosys3logEPKcz(ptr noundef @.str.20)
  call void (ptr, ...) @_ZN5Yosys3logEPKcz(ptr noundef @.str.3)
  ret void
}